target datalayout = "e-m:e-p270:32:32-p271:32:32-p272:64:64-i64:64-i128:128-f80:128-n8:16:32:64-S128"
target triple = "x86_64-pc-linux-gnu"

%struct.IDAMemRec = type { double, ptr, ptr, i32, double, double, ptr, i32, ptr, ptr, i32, ptr, ptr, i32, i32, double, double, ptr, i32, i32, i32, ptr, ptr, i32, ptr, ptr, ptr, i32, double, i32, i32, double, ptr, ptr, i32, ptr, ptr, i32, i32, i32, double, ptr, ptr, [6 x ptr], [6 x double], [6 x double], [6 x double], [6 x double], [6 x double], ptr, ptr, ptr, ptr, ptr, ptr, ptr, ptr, ptr, ptr, ptr, ptr, ptr, ptr, ptr, [6 x ptr], ptr, ptr, ptr, ptr, [6 x ptr], ptr, ptr, ptr, ptr, ptr, ptr, ptr, ptr, ptr, ptr, ptr, ptr, ptr, ptr, [6 x ptr], ptr, ptr, ptr, ptr, ptr, double, ptr, ptr, i32, i32, i32, i32, i32, i32, i32, double, double, double, i32, double, i32, i32, i32, i32, double, double, double, double, double, double, double, double, double, double, double, double, double, double, i32, i32, i32, i32, i32, i64, double, i32, i64, i64, i64, i64, i64, i64, i64, i64, i64, i64, i64, i64, i64, i64, i64, i64, i64, i64, i64, i64, i64, i64, i64, i64, ptr, ptr, ptr, i32, i32, i32, i32, i32, i32, i32, i32, i32, i32, i32, i32, i32, ptr, ptr, ptr, ptr, ptr, ptr, i32, i32, i32, i32, i32, i32, double, double, double, ptr, i32, ptr, ptr, double, double, double, ptr, ptr, ptr, double, double, i32, i32, i64, ptr, i32, i32, ptr, i32 }
%struct.IDAadjMemRec = type { double, double, i32, i32, double, ptr, i32, ptr, i32, ptr, ptr, i32, i64, ptr, i64, i32, ptr, ptr, ptr, ptr, i32, i32, i32, i32, i32, [6 x ptr], [6 x ptr], [6 x double], ptr, ptr, ptr, ptr, i64 }
%struct.IDABMemRec = type { i32, double, ptr, i32, i32, ptr, ptr, ptr, ptr, ptr, ptr, ptr, ptr, ptr, double, ptr, ptr, ptr }
%struct.IDADlsMemRecB = type { i32, ptr, ptr, ptr, ptr }

@.str = private unnamed_addr constant [9 x i8] c"IDASBAND\00", align 1
@.str.5 = private unnamed_addr constant [25 x i8] c"A memory request failed.\00", align 1
@.str.6 = private unnamed_addr constant [9 x i8] c"IDABandB\00", align 1
@.str.7 = private unnamed_addr constant [27 x i8] c"idaadj_mem = NULL illegal.\00", align 1
@.str.8 = private unnamed_addr constant [51 x i8] c"Illegal attempt to call before calling IDAAdjInit.\00", align 1
@.str.9 = private unnamed_addr constant [25 x i8] c"Illegal value for which.\00", align 1

; Function Attrs: nounwind uwtable
define i32 @IDABandB(ptr noundef %0, i32 noundef %1, i64 noundef %2, i64 noundef %3, i64 noundef %4) #0 {
  %6 = alloca i32, align 4
  %7 = alloca ptr, align 8
  %8 = alloca i32, align 4
  %9 = alloca i64, align 8
  %10 = alloca i64, align 8
  %11 = alloca i64, align 8
  %12 = alloca ptr, align 8
  %13 = alloca ptr, align 8
  %14 = alloca ptr, align 8
  %15 = alloca ptr, align 8
  %16 = alloca ptr, align 8
  %17 = alloca i32, align 4
  %18 = alloca i32, align 4
  store ptr %0, ptr %7, align 8, !tbaa !3
  store i32 %1, ptr %8, align 4, !tbaa !27
  store i64 %2, ptr %9, align 8, !tbaa !7
  store i64 %3, ptr %10, align 8, !tbaa !7
  store i64 %4, ptr %11, align 8, !tbaa !7
  call void @llvm.lifetime.start.p0(i64 8, ptr %12) #5
  call void @llvm.lifetime.start.p0(i64 8, ptr %13) #5
  call void @llvm.lifetime.start.p0(i64 8, ptr %14) #5
  call void @llvm.lifetime.start.p0(i64 8, ptr %15) #5
  call void @llvm.lifetime.start.p0(i64 8, ptr %16) #5
  call void @llvm.lifetime.start.p0(i64 4, ptr %17) #5
  %19 = load ptr, ptr %7, align 8, !tbaa !3
  %20 = icmp eq ptr %19, null
  br i1 %20, label %21, label %22

21:                                               ; preds = %5
  call void (ptr, i32, ptr, ptr, ptr, ...) @IDAProcessError(ptr noundef null, i32 noundef -1, ptr noundef @.str, ptr noundef @.str.6, ptr noundef @.str.7)
  store i32 -1, ptr %6, align 4
  store i32 1, ptr %18, align 4
  br label %91

22:                                               ; preds = %5
  %23 = load ptr, ptr %7, align 8, !tbaa !3
  store ptr %23, ptr %12, align 8, !tbaa !9
  %24 = load ptr, ptr %12, align 8, !tbaa !9
  %25 = getelementptr inbounds nuw %struct.IDAMemRec, ptr %24, i32 0, i32 205
  %26 = load i32, ptr %25, align 8, !tbaa !58
  %27 = icmp eq i32 %26, 0
  br i1 %27, label %28, label %30

28:                                               ; preds = %22
  %29 = load ptr, ptr %12, align 8, !tbaa !9
  call void (ptr, i32, ptr, ptr, ptr, ...) @IDAProcessError(ptr noundef %29, i32 noundef -101, ptr noundef @.str, ptr noundef @.str.6, ptr noundef @.str.8)
  store i32 -101, ptr %6, align 4
  store i32 1, ptr %18, align 4
  br label %91

30:                                               ; preds = %22
  %31 = load ptr, ptr %12, align 8, !tbaa !9
  %32 = getelementptr inbounds nuw %struct.IDAMemRec, ptr %31, i32 0, i32 204
  %33 = load ptr, ptr %32, align 8, !tbaa !59
  store ptr %33, ptr %13, align 8, !tbaa !60
  %34 = load i32, ptr %8, align 4, !tbaa !27
  %35 = load ptr, ptr %13, align 8, !tbaa !60
  %36 = getelementptr inbounds nuw %struct.IDAadjMemRec, ptr %35, i32 0, i32 6
  %37 = load i32, ptr %36, align 8, !tbaa !61
  %38 = icmp sge i32 %34, %37
  br i1 %38, label %39, label %41

39:                                               ; preds = %30
  %40 = load ptr, ptr %12, align 8, !tbaa !9
  call void (ptr, i32, ptr, ptr, ptr, ...) @IDAProcessError(ptr noundef %40, i32 noundef -3, ptr noundef @.str, ptr noundef @.str.6, ptr noundef @.str.9)
  store i32 -3, ptr %6, align 4
  store i32 1, ptr %18, align 4
  br label %91

41:                                               ; preds = %30
  %42 = load ptr, ptr %13, align 8, !tbaa !60
  %43 = getelementptr inbounds nuw %struct.IDAadjMemRec, ptr %42, i32 0, i32 5
  %44 = load ptr, ptr %43, align 8, !tbaa !66
  store ptr %44, ptr %14, align 8, !tbaa !67
  br label %45

45:                                               ; preds = %55, %41
  %46 = load ptr, ptr %14, align 8, !tbaa !67
  %47 = icmp ne ptr %46, null
  br i1 %47, label %48, label %59

48:                                               ; preds = %45
  %49 = load i32, ptr %8, align 4, !tbaa !27
  %50 = load ptr, ptr %14, align 8, !tbaa !67
  %51 = getelementptr inbounds nuw %struct.IDABMemRec, ptr %50, i32 0, i32 0
  %52 = load i32, ptr %51, align 8, !tbaa !68
  %53 = icmp eq i32 %49, %52
  br i1 %53, label %54, label %55

54:                                               ; preds = %48
  br label %59

55:                                               ; preds = %48
  %56 = load ptr, ptr %14, align 8, !tbaa !67
  %57 = getelementptr inbounds nuw %struct.IDABMemRec, ptr %56, i32 0, i32 17
  %58 = load ptr, ptr %57, align 8, !tbaa !70
  store ptr %58, ptr %14, align 8, !tbaa !67
  br label %45, !llvm.loop !71

59:                                               ; preds = %54, %45
  %60 = call noalias ptr @malloc(i64 noundef 40) #6
  store ptr %60, ptr %15, align 8, !tbaa !73
  %61 = load ptr, ptr %15, align 8, !tbaa !73
  %62 = icmp eq ptr %61, null
  br i1 %62, label %63, label %67

63:                                               ; preds = %59
  %64 = load ptr, ptr %14, align 8, !tbaa !67
  %65 = getelementptr inbounds nuw %struct.IDABMemRec, ptr %64, i32 0, i32 2
  %66 = load ptr, ptr %65, align 8, !tbaa !75
  call void (ptr, i32, ptr, ptr, ptr, ...) @IDAProcessError(ptr noundef %66, i32 noundef -4, ptr noundef @.str, ptr noundef @.str.6, ptr noundef @.str.5)
  store i32 -4, ptr %6, align 4
  store i32 1, ptr %18, align 4
  br label %91

67:                                               ; preds = %59
  %68 = load ptr, ptr %15, align 8, !tbaa !73
  %69 = getelementptr inbounds nuw %struct.IDADlsMemRecB, ptr %68, i32 0, i32 0
  store i32 2, ptr %69, align 8, !tbaa !76
  %70 = load ptr, ptr %15, align 8, !tbaa !73
  %71 = getelementptr inbounds nuw %struct.IDADlsMemRecB, ptr %70, i32 0, i32 3
  store ptr null, ptr %71, align 8, !tbaa !78
  %72 = load ptr, ptr %15, align 8, !tbaa !73
  %73 = load ptr, ptr %14, align 8, !tbaa !67
  %74 = getelementptr inbounds nuw %struct.IDABMemRec, ptr %73, i32 0, i32 10
  store ptr %72, ptr %74, align 8, !tbaa !79
  %75 = load ptr, ptr %14, align 8, !tbaa !67
  %76 = getelementptr inbounds nuw %struct.IDABMemRec, ptr %75, i32 0, i32 11
  store ptr @IDABandFreeB, ptr %76, align 8, !tbaa !80
  %77 = load ptr, ptr %14, align 8, !tbaa !67
  %78 = getelementptr inbounds nuw %struct.IDABMemRec, ptr %77, i32 0, i32 2
  %79 = load ptr, ptr %78, align 8, !tbaa !75
  store ptr %79, ptr %16, align 8, !tbaa !3
  %80 = load ptr, ptr %16, align 8, !tbaa !3
  %81 = load i64, ptr %9, align 8, !tbaa !7
  %82 = load i64, ptr %10, align 8, !tbaa !7
  %83 = load i64, ptr %11, align 8, !tbaa !7
  %84 = call i32 @IDABand(ptr noundef %80, i64 noundef %81, i64 noundef %82, i64 noundef %83)
  store i32 %84, ptr %17, align 4, !tbaa !27
  %85 = load i32, ptr %17, align 4, !tbaa !27
  %86 = icmp ne i32 %85, 0
  br i1 %86, label %87, label %89

87:                                               ; preds = %67
  %88 = load ptr, ptr %15, align 8, !tbaa !73
  call void @free(ptr noundef %88) #5
  store ptr null, ptr %15, align 8, !tbaa !73
  br label %89

89:                                               ; preds = %87, %67
  %90 = load i32, ptr %17, align 4, !tbaa !27
  store i32 %90, ptr %6, align 4
  store i32 1, ptr %18, align 4
  br label %91

91:                                               ; preds = %89, %63, %39, %28, %21
  call void @llvm.lifetime.end.p0(i64 4, ptr %17) #5
  call void @llvm.lifetime.end.p0(i64 8, ptr %16) #5
  call void @llvm.lifetime.end.p0(i64 8, ptr %15) #5
  call void @llvm.lifetime.end.p0(i64 8, ptr %14) #5
  call void @llvm.lifetime.end.p0(i64 8, ptr %13) #5
  call void @llvm.lifetime.end.p0(i64 8, ptr %12) #5
  %92 = load i32, ptr %6, align 4
  ret i32 %92
}