; Function Attrs: nounwind uwtable
define range(i32 -101, 1) i32 @IDABandB(ptr noundef %0, i32 noundef %1, i64 noundef %2, i64 noundef %3, i64 noundef %4) local_unnamed_addr #0 {
  %6 = icmp eq ptr %0, null
  br i1 %6, label %7, label %8

7:                                                ; preds = %5
  tail call void (ptr, i32, ptr, ptr, ptr, ...) @IDAProcessError(ptr noundef null, i32 noundef -1, ptr noundef nonnull @.str, ptr noundef nonnull @.str.6, ptr noundef nonnull @.str.7) #7
  br label %38

8:                                                ; preds = %5
  %9 = getelementptr inbounds nuw i8, ptr %0, i64 1824
  %10 = load i32, ptr %9, align 8, !tbaa !48
  %11 = icmp eq i32 %10, 0
  br i1 %11, label %12, label %13

12:                                               ; preds = %8
  tail call void (ptr, i32, ptr, ptr, ptr, ...) @IDAProcessError(ptr noundef nonnull %0, i32 noundef -101, ptr noundef nonnull @.str, ptr noundef nonnull @.str.6, ptr noundef nonnull @.str.8) #7
  br label %38

13:                                               ; preds = %8
  %14 = getelementptr inbounds nuw i8, ptr %0, i64 1816
  %15 = load ptr, ptr %14, align 8, !tbaa !49
  %16 = getelementptr inbounds nuw i8, ptr %15, i64 40
  %17 = load i32, ptr %16, align 8, !tbaa !50
  %.not = icmp slt i32 %1, %17
  br i1 %.not, label %19, label %18

18:                                               ; preds = %13
  tail call void (ptr, i32, ptr, ptr, ptr, ...) @IDAProcessError(ptr noundef nonnull %0, i32 noundef -3, ptr noundef nonnull @.str, ptr noundef nonnull @.str.6, ptr noundef nonnull @.str.9) #7
  br label %38

19:                                               ; preds = %13
  %20 = getelementptr inbounds nuw i8, ptr %15, i64 32
  %.02834 = load ptr, ptr %20, align 8, !tbaa !55
  %.not3235 = icmp eq ptr %.02834, null
  br i1 %.not3235, label %._crit_edge, label %.lr.ph

.lr.ph:                                           ; preds = %19, %23
  %.02836 = phi ptr [ %.028, %23 ], [ %.02834, %19 ]
  %21 = load i32, ptr %.02836, align 8, !tbaa !56
  %22 = icmp eq i32 %1, %21
  br i1 %22, label %._crit_edge, label %23

23:                                               ; preds = %.lr.ph
  %24 = getelementptr inbounds nuw i8, ptr %.02836, i64 128
  %.028 = load ptr, ptr %24, align 8, !tbaa !55
  %.not32 = icmp eq ptr %.028, null
  br i1 %.not32, label %._crit_edge, label %.lr.ph, !llvm.loop !59

._crit_edge:                                      ; preds = %23, %.lr.ph, %19
  %.028.lcssa = phi ptr [ null, %19 ], [ %.02836, %.lr.ph ], [ null, %23 ]
  %25 = tail call noalias dereferenceable_or_null(40) ptr @malloc(i64 noundef 40) #8
  %26 = icmp eq ptr %25, null
  br i1 %26, label %27, label %30

27:                                               ; preds = %._crit_edge
  %28 = getelementptr inbounds nuw i8, ptr %.028.lcssa, i64 16
  %29 = load ptr, ptr %28, align 8, !tbaa !61
  tail call void (ptr, i32, ptr, ptr, ptr, ...) @IDAProcessError(ptr noundef %29, i32 noundef -4, ptr noundef nonnull @.str, ptr noundef nonnull @.str.6, ptr noundef nonnull @.str.5) #7
  br label %38

30:                                               ; preds = %._crit_edge
  store i32 2, ptr %25, align 8, !tbaa !62
  %31 = getelementptr inbounds nuw i8, ptr %25, i64 24
  store ptr null, ptr %31, align 8, !tbaa !64
  %32 = getelementptr inbounds nuw i8, ptr %.028.lcssa, i64 72
  store ptr %25, ptr %32, align 8, !tbaa !65
  %33 = getelementptr inbounds nuw i8, ptr %.028.lcssa, i64 80
  store ptr @IDABandFreeB, ptr %33, align 8, !tbaa !66
  %34 = getelementptr inbounds nuw i8, ptr %.028.lcssa, i64 16
  %35 = load ptr, ptr %34, align 8, !tbaa !61
  %36 = tail call i32 @IDABand(ptr noundef %35, i64 noundef %2, i64 noundef %3, i64 noundef %4)
  %.not33 = icmp eq i32 %36, 0
  br i1 %.not33, label %38, label %37

37:                                               ; preds = %30
  tail call void @free(ptr noundef nonnull %25) #7
  br label %38

38:                                               ; preds = %30, %37, %27, %18, %12, %7
  %.0 = phi i32 [ -1, %7 ], [ -101, %12 ], [ -3, %18 ], [ -4, %27 ], [ %36, %37 ], [ 0, %30 ]
  ret i32 %.0
}